target datalayout = "e-m:e-p270:32:32-p271:32:32-p272:64:64-i64:64-i128:128-f80:128-n8:16:32:64-S128"
target triple = "x86_64-pc-linux-gnu"

@.str.18 = private unnamed_addr constant [16 x i8] c"ipx.packet_type\00", align 1
@.str.36 = private unnamed_addr constant [11 x i8] c"ipx.socket\00", align 1
@.str.115 = private unnamed_addr constant [4 x i8] c"ipx\00", align 1
@ipx_handle = internal global ptr null, align 8
@spx_handle = internal global ptr null, align 8
@ipxrip_handle = internal global ptr null, align 8
@serialization_handle = internal global ptr null, align 8
@ipxmsg_handle = internal global ptr null, align 8
@ipxsap_handle = internal global ptr null, align 8
@.str.135 = private unnamed_addr constant [9 x i8] c"udp.port\00", align 1
@.str.136 = private unnamed_addr constant [10 x i8] c"ethertype\00", align 1
@.str.137 = private unnamed_addr constant [15 x i8] c"chdlc.protocol\00", align 1
@.str.138 = private unnamed_addr constant [13 x i8] c"ppp.protocol\00", align 1
@.str.139 = private unnamed_addr constant [9 x i8] c"llc.dsap\00", align 1
@.str.140 = private unnamed_addr constant [10 x i8] c"sll.ltype\00", align 1
@.str.141 = private unnamed_addr constant [10 x i8] c"null.type\00", align 1
@.str.142 = private unnamed_addr constant [10 x i8] c"gre.proto\00", align 1
@.str.143 = private unnamed_addr constant [19 x i8] c"arcnet.protocol_id\00", align 1
@.str.144 = private unnamed_addr constant [9 x i8] c"ppp_hdlc\00", align 1

; Function Attrs: null_pointer_is_valid sspstrong uwtable
define hidden void @proto_reg_handoff_ipx() #1 {
  %1 = alloca ptr, align 8
  call void @llvm.lifetime.start.p0(i64 8, ptr %1) #7
  %2 = load ptr, ptr @ipx_handle, align 8
  call void @dissector_add_uint_with_preference(ptr noundef @.str.135, i32 noundef 213, ptr noundef %2)
  %3 = load ptr, ptr @ipx_handle, align 8
  call void @dissector_add_uint(ptr noundef @.str.136, i32 noundef 33079, ptr noundef %3)
  %4 = load ptr, ptr @ipx_handle, align 8
  call void @dissector_add_uint(ptr noundef @.str.137, i32 noundef 33079, ptr noundef %4)
  %5 = load ptr, ptr @ipx_handle, align 8
  call void @dissector_add_uint(ptr noundef @.str.138, i32 noundef 43, ptr noundef %5)
  %6 = load ptr, ptr @ipx_handle, align 8
  call void @dissector_add_uint(ptr noundef @.str.139, i32 noundef 16, ptr noundef %6)
  %7 = load ptr, ptr @ipx_handle, align 8
  call void @dissector_add_uint(ptr noundef @.str.139, i32 noundef 224, ptr noundef %7)
  %8 = load ptr, ptr @ipx_handle, align 8
  call void @dissector_add_uint(ptr noundef @.str.140, i32 noundef 1, ptr noundef %8)
  %9 = load ptr, ptr @ipx_handle, align 8
  call void @dissector_add_uint(ptr noundef @.str.141, i32 noundef 23, ptr noundef %9)
  %10 = load ptr, ptr @ipx_handle, align 8
  call void @dissector_add_uint(ptr noundef @.str.142, i32 noundef 33079, ptr noundef %10)
  %11 = load ptr, ptr @ipx_handle, align 8
  call void @dissector_add_uint(ptr noundef @.str.143, i32 noundef 250, ptr noundef %11)
  %12 = load ptr, ptr @ipx_handle, align 8
  call void @dissector_add_uint(ptr noundef @.str.143, i32 noundef 236, ptr noundef %12)
  %13 = load ptr, ptr @spx_handle, align 8
  call void @dissector_add_uint(ptr noundef @.str.18, i32 noundef 5, ptr noundef %13)
  %14 = load ptr, ptr @ipxsap_handle, align 8
  call void @dissector_add_uint(ptr noundef @.str.36, i32 noundef 1106, ptr noundef %14)
  %15 = load ptr, ptr @ipxrip_handle, align 8
  call void @dissector_add_uint(ptr noundef @.str.36, i32 noundef 1107, ptr noundef %15)
  %16 = load ptr, ptr @serialization_handle, align 8
  call void @dissector_add_uint(ptr noundef @.str.36, i32 noundef 1111, ptr noundef %16)
  %17 = load ptr, ptr @ipxmsg_handle, align 8
  call void @dissector_add_uint(ptr noundef @.str.36, i32 noundef 16385, ptr noundef %17)
  %18 = load ptr, ptr @ipxmsg_handle, align 8
  call void @dissector_add_uint(ptr noundef @.str.36, i32 noundef 16387, ptr noundef %18)
  %19 = call ptr @find_capture_dissector(ptr noundef @.str.115)
  store ptr %19, ptr %1, align 8
  %20 = load ptr, ptr %1, align 8
  call void @capture_dissector_add_uint(ptr noundef @.str.136, i32 noundef 33079, ptr noundef %20)
  %21 = load ptr, ptr %1, align 8
  call void @capture_dissector_add_uint(ptr noundef @.str.144, i32 noundef 43, ptr noundef %21)
  %22 = load ptr, ptr %1, align 8
  call void @capture_dissector_add_uint(ptr noundef @.str.140, i32 noundef 1, ptr noundef %22)
  %23 = load ptr, ptr %1, align 8
  call void @capture_dissector_add_uint(ptr noundef @.str.139, i32 noundef 16, ptr noundef %23)
  %24 = load ptr, ptr %1, align 8
  call void @capture_dissector_add_uint(ptr noundef @.str.139, i32 noundef 224, ptr noundef %24)
  call void @llvm.lifetime.end.p0(i64 8, ptr %1) #7
  ret void
}