; Function Attrs: null_pointer_is_valid sspstrong uwtable
define hidden void @proto_reg_handoff_ipx() local_unnamed_addr #1 {
  %1 = load ptr, ptr @ipx_handle, align 8
  tail call void @dissector_add_uint_with_preference(ptr noundef nonnull @.str.135, i32 noundef 213, ptr noundef %1)
  %2 = load ptr, ptr @ipx_handle, align 8
  tail call void @dissector_add_uint(ptr noundef nonnull @.str.136, i32 noundef 33079, ptr noundef %2)
  %3 = load ptr, ptr @ipx_handle, align 8
  tail call void @dissector_add_uint(ptr noundef nonnull @.str.137, i32 noundef 33079, ptr noundef %3)
  %4 = load ptr, ptr @ipx_handle, align 8
  tail call void @dissector_add_uint(ptr noundef nonnull @.str.138, i32 noundef 43, ptr noundef %4)
  %5 = load ptr, ptr @ipx_handle, align 8
  tail call void @dissector_add_uint(ptr noundef nonnull @.str.139, i32 noundef 16, ptr noundef %5)
  %6 = load ptr, ptr @ipx_handle, align 8
  tail call void @dissector_add_uint(ptr noundef nonnull @.str.139, i32 noundef 224, ptr noundef %6)
  %7 = load ptr, ptr @ipx_handle, align 8
  tail call void @dissector_add_uint(ptr noundef nonnull @.str.140, i32 noundef 1, ptr noundef %7)
  %8 = load ptr, ptr @ipx_handle, align 8
  tail call void @dissector_add_uint(ptr noundef nonnull @.str.141, i32 noundef 23, ptr noundef %8)
  %9 = load ptr, ptr @ipx_handle, align 8
  tail call void @dissector_add_uint(ptr noundef nonnull @.str.142, i32 noundef 33079, ptr noundef %9)
  %10 = load ptr, ptr @ipx_handle, align 8
  tail call void @dissector_add_uint(ptr noundef nonnull @.str.143, i32 noundef 250, ptr noundef %10)
  %11 = load ptr, ptr @ipx_handle, align 8
  tail call void @dissector_add_uint(ptr noundef nonnull @.str.143, i32 noundef 236, ptr noundef %11)
  %12 = load ptr, ptr @spx_handle, align 8
  tail call void @dissector_add_uint(ptr noundef nonnull @.str.18, i32 noundef 5, ptr noundef %12)
  %13 = load ptr, ptr @ipxsap_handle, align 8
  tail call void @dissector_add_uint(ptr noundef nonnull @.str.36, i32 noundef 1106, ptr noundef %13)
  %14 = load ptr, ptr @ipxrip_handle, align 8
  tail call void @dissector_add_uint(ptr noundef nonnull @.str.36, i32 noundef 1107, ptr noundef %14)
  %15 = load ptr, ptr @serialization_handle, align 8
  tail call void @dissector_add_uint(ptr noundef nonnull @.str.36, i32 noundef 1111, ptr noundef %15)
  %16 = load ptr, ptr @ipxmsg_handle, align 8
  tail call void @dissector_add_uint(ptr noundef nonnull @.str.36, i32 noundef 16385, ptr noundef %16)
  %17 = load ptr, ptr @ipxmsg_handle, align 8
  tail call void @dissector_add_uint(ptr noundef nonnull @.str.36, i32 noundef 16387, ptr noundef %17)
  %18 = tail call ptr @find_capture_dissector(ptr noundef nonnull @.str.115)
  tail call void @capture_dissector_add_uint(ptr noundef nonnull @.str.136, i32 noundef 33079, ptr noundef %18)
  tail call void @capture_dissector_add_uint(ptr noundef nonnull @.str.144, i32 noundef 43, ptr noundef %18)
  tail call void @capture_dissector_add_uint(ptr noundef nonnull @.str.140, i32 noundef 1, ptr noundef %18)
  tail call void @capture_dissector_add_uint(ptr noundef nonnull @.str.139, i32 noundef 16, ptr noundef %18)
  tail call void @capture_dissector_add_uint(ptr noundef nonnull @.str.139, i32 noundef 224, ptr noundef %18)
  ret void
}